; Function Attrs: mustprogress uwtable
define noundef i64 @_ZN5faiss13InvertedLists9add_entryEmlPKhPv(ptr noundef nonnull align 8 dereferenceable(25) %0, i64 noundef %1, i64 noundef %2, ptr noundef %3, ptr readnone captures(none) %4) unnamed_addr #2 align 2 {
  %6 = alloca i64, align 8
  store i64 %2, ptr %6, align 8, !tbaa !7
  %7 = load ptr, ptr %0, align 8, !tbaa !4
  %8 = getelementptr inbounds nuw i8, ptr %7, i64 104
  %9 = load ptr, ptr %8, align 8
  %10 = call noundef i64 %9(ptr noundef nonnull align 8 dereferenceable(25) %0, i64 noundef %1, i64 noundef 1, ptr noundef nonnull %6, ptr noundef %3)
  ret i64 %10
}